target datalayout = "e-m:e-p270:32:32-p271:32:32-p272:64:64-i64:64-i128:128-f80:128-n8:16:32:64-S128"
target triple = "x86_64-pc-linux-gnu"

%struct.ltlNode_t = type { i32, ptr, ptr, ptr, ptr }

; Function Attrs: nounwind uwtable
define i32 @isWellFormed(ptr noundef %0) #0 {
  %2 = alloca i32, align 4
  %3 = alloca ptr, align 8
  %4 = alloca ptr, align 8
  %5 = alloca i32, align 4
  store ptr %0, ptr %3, align 8, !tbaa !7
  call void @llvm.lifetime.start.p0(i64 8, ptr %4) #9
  %6 = load ptr, ptr %3, align 8, !tbaa !7
  %7 = getelementptr inbounds nuw %struct.ltlNode_t, ptr %6, i32 0, i32 0
  %8 = load i32, ptr %7, align 8, !tbaa !10
  switch i32 %8, label %44 [
    i32 0, label %9
    i32 1, label %9
    i32 3, label %9
    i32 2, label %24
    i32 8, label %29
    i32 4, label %30
  ]

9:                                                ; preds = %1, %1, %1
  %10 = load ptr, ptr %3, align 8, !tbaa !7
  %11 = getelementptr inbounds nuw %struct.ltlNode_t, ptr %10, i32 0, i32 3
  %12 = load ptr, ptr %11, align 8, !tbaa !16
  %13 = call i32 @isWellFormed(ptr noundef %12)
  %14 = icmp ne i32 %13, 0
  br i1 %14, label %15, label %21

15:                                               ; preds = %9
  %16 = load ptr, ptr %3, align 8, !tbaa !7
  %17 = getelementptr inbounds nuw %struct.ltlNode_t, ptr %16, i32 0, i32 4
  %18 = load ptr, ptr %17, align 8, !tbaa !17
  %19 = call i32 @isWellFormed(ptr noundef %18)
  %20 = icmp ne i32 %19, 0
  br label %21

21:                                               ; preds = %15, %9
  %22 = phi i1 [ false, %9 ], [ %20, %15 ]
  %23 = zext i1 %22 to i32
  store i32 %23, ptr %2, align 4
  store i32 1, ptr %5, align 4
  br label %45

24:                                               ; preds = %1
  %25 = load ptr, ptr %3, align 8, !tbaa !7
  %26 = getelementptr inbounds nuw %struct.ltlNode_t, ptr %25, i32 0, i32 3
  %27 = load ptr, ptr %26, align 8, !tbaa !16
  %28 = call i32 @isWellFormed(ptr noundef %27)
  store i32 %28, ptr %2, align 4
  store i32 1, ptr %5, align 4
  br label %45

29:                                               ; preds = %1
  store i32 1, ptr %2, align 4
  store i32 1, ptr %5, align 4
  br label %45

30:                                               ; preds = %1
  %31 = load ptr, ptr %3, align 8, !tbaa !7
  %32 = getelementptr inbounds nuw %struct.ltlNode_t, ptr %31, i32 0, i32 3
  %33 = load ptr, ptr %32, align 8, !tbaa !16
  store ptr %33, ptr %4, align 8, !tbaa !7
  %34 = load ptr, ptr %4, align 8, !tbaa !7
  %35 = getelementptr inbounds nuw %struct.ltlNode_t, ptr %34, i32 0, i32 0
  %36 = load i32, ptr %35, align 8, !tbaa !10
  %37 = icmp ne i32 %36, 5
  br i1 %37, label %38, label %39

38:                                               ; preds = %30
  store i32 0, ptr %2, align 4
  store i32 1, ptr %5, align 4
  br label %45

39:                                               ; preds = %30
  %40 = load ptr, ptr %4, align 8, !tbaa !7
  %41 = getelementptr inbounds nuw %struct.ltlNode_t, ptr %40, i32 0, i32 3
  %42 = load ptr, ptr %41, align 8, !tbaa !16
  %43 = call i32 @isNonTemporalSubformula(ptr noundef %42)
  store i32 %43, ptr %2, align 4
  store i32 1, ptr %5, align 4
  br label %45

44:                                               ; preds = %1
  store i32 0, ptr %2, align 4
  store i32 1, ptr %5, align 4
  br label %45

45:                                               ; preds = %44, %39, %38, %29, %24, %21
  call void @llvm.lifetime.end.p0(i64 8, ptr %4) #9
  %46 = load i32, ptr %2, align 4
  ret i32 %46
}